target datalayout = "e-m:e-p270:32:32-p271:32:32-p272:64:64-i64:64-i128:128-f80:128-n8:16:32:64-S128"
target triple = "x86_64-pc-linux-gnu"

@.str.5 = private unnamed_addr constant [1 x i8] zeroinitializer, align 1

; Function Attrs: nounwind uwtable
define ptr @phpdbg_trim(ptr noundef %0, i64 noundef %1, ptr noundef %2) #0 {
  %4 = alloca ptr, align 8
  %5 = alloca i64, align 8
  %6 = alloca ptr, align 8
  %7 = alloca ptr, align 8
  %8 = alloca ptr, align 8
  store ptr %0, ptr %4, align 8
  store i64 %1, ptr %5, align 8
  store ptr %2, ptr %6, align 8
  %9 = load ptr, ptr %4, align 8
  store ptr %9, ptr %7, align 8
  store ptr null, ptr %8, align 8
  br label %10

10:                                               ; preds = %22, %3
  %11 = call ptr @__ctype_b_loc() #11
  %12 = load ptr, ptr %11, align 8
  %13 = load ptr, ptr %7, align 8
  %14 = load i8, ptr %13, align 1
  %15 = sext i8 %14 to i32
  %16 = sext i32 %15 to i64
  %17 = getelementptr inbounds i16, ptr %12, i64 %16
  %18 = load i16, ptr %17, align 2
  %19 = zext i16 %18 to i32
  %20 = and i32 %19, 8192
  %21 = icmp ne i32 %20, 0
  br i1 %21, label %22, label %27

22:                                               ; preds = %10
  %23 = load ptr, ptr %7, align 8
  %24 = getelementptr inbounds i8, ptr %23, i32 1
  store ptr %24, ptr %7, align 8
  %25 = load i64, ptr %5, align 8
  %26 = add i64 %25, -1
  store i64 %26, ptr %5, align 8
  br label %10

27:                                               ; preds = %10
  br label %28

28:                                               ; preds = %50, %27
  %29 = load ptr, ptr %7, align 8
  %30 = load i8, ptr %29, align 1
  %31 = sext i8 %30 to i32
  %32 = icmp ne i32 %31, 0
  br i1 %32, label %33, label %48

33:                                               ; preds = %28
  %34 = call ptr @__ctype_b_loc() #11
  %35 = load ptr, ptr %34, align 8
  %36 = load ptr, ptr %7, align 8
  %37 = load i64, ptr %5, align 8
  %38 = getelementptr inbounds i8, ptr %36, i64 %37
  %39 = getelementptr inbounds i8, ptr %38, i64 -1
  %40 = load i8, ptr %39, align 1
  %41 = sext i8 %40 to i32
  %42 = sext i32 %41 to i64
  %43 = getelementptr inbounds i16, ptr %35, i64 %42
  %44 = load i16, ptr %43, align 2
  %45 = zext i16 %44 to i32
  %46 = and i32 %45, 8192
  %47 = icmp ne i32 %46, 0
  br label %48

48:                                               ; preds = %33, %28
  %49 = phi i1 [ false, %28 ], [ %47, %33 ]
  br i1 %49, label %50, label %53

50:                                               ; preds = %48
  %51 = load i64, ptr %5, align 8
  %52 = add i64 %51, -1
  store i64 %52, ptr %5, align 8
  br label %28

53:                                               ; preds = %48
  %54 = load i64, ptr %5, align 8
  %55 = icmp eq i64 %54, 0
  br i1 %55, label %56, label %59

56:                                               ; preds = %53
  %57 = call noalias ptr @_estrndup(ptr noundef @.str.5, i64 noundef 1)
  store ptr %57, ptr %8, align 8
  %58 = load ptr, ptr %6, align 8
  store i64 0, ptr %58, align 8
  br label %72

59:                                               ; preds = %53
  %60 = load ptr, ptr %7, align 8
  %61 = load i64, ptr %5, align 8
  %62 = call noalias ptr @_estrndup(ptr noundef %60, i64 noundef %61)
  store ptr %62, ptr %8, align 8
  %63 = load ptr, ptr %8, align 8
  %64 = load i64, ptr %5, align 8
  %65 = getelementptr inbounds i8, ptr %63, i64 %64
  store i8 0, ptr %65, align 1
  %66 = load ptr, ptr %6, align 8
  %67 = icmp ne ptr %66, null
  br i1 %67, label %68, label %71

68:                                               ; preds = %59
  %69 = load i64, ptr %5, align 8
  %70 = load ptr, ptr %6, align 8
  store i64 %69, ptr %70, align 8
  br label %71

71:                                               ; preds = %68, %59
  br label %72

72:                                               ; preds = %71, %56
  %73 = load ptr, ptr %8, align 8
  ret ptr %73
}