; Function Attrs: nounwind uwtable
define noalias ptr @phpdbg_trim(ptr noundef %0, i64 noundef %1, ptr noundef writeonly %2) local_unnamed_addr #3 {
  %4 = tail call ptr @__ctype_b_loc() #23
  %5 = load ptr, ptr %4, align 8
  %6 = load i8, ptr %0, align 1
  %7 = sext i8 %6 to i64
  %8 = getelementptr inbounds i16, ptr %5, i64 %7
  %9 = load i16, ptr %8, align 2
  %10 = and i16 %9, 8192
  %.not24 = icmp eq i16 %10, 0
  br i1 %.not24, label %.preheader, label %.lr.ph

.preheader:                                       ; preds = %.lr.ph, %3
  %.018.lcssa = phi i64 [ %1, %3 ], [ %12, %.lr.ph ]
  %.017.lcssa = phi ptr [ %0, %3 ], [ %11, %.lr.ph ]
  %.lcssa = phi i8 [ %6, %3 ], [ %13, %.lr.ph ]
  %.not20 = icmp eq i8 %.lcssa, 0
  %invariant.gep = getelementptr i8, ptr %.017.lcssa, i64 -1
  br i1 %.not20, label %.critedge, label %.lr.ph31.split

.lr.ph:                                           ; preds = %3, %.lr.ph
  %.01726 = phi ptr [ %11, %.lr.ph ], [ %0, %3 ]
  %.01825 = phi i64 [ %12, %.lr.ph ], [ %1, %3 ]
  %11 = getelementptr inbounds i8, ptr %.01726, i64 1
  %12 = add i64 %.01825, -1
  %13 = load i8, ptr %11, align 1
  %14 = sext i8 %13 to i64
  %15 = getelementptr inbounds i16, ptr %5, i64 %14
  %16 = load i16, ptr %15, align 2
  %17 = and i16 %16, 8192
  %.not = icmp eq i16 %17, 0
  br i1 %.not, label %.preheader, label %.lr.ph

.lr.ph31.split:                                   ; preds = %.preheader, %.lr.ph31.split
  %.130 = phi i64 [ %23, %.lr.ph31.split ], [ %.018.lcssa, %.preheader ]
  %gep = getelementptr i8, ptr %invariant.gep, i64 %.130
  %18 = load i8, ptr %gep, align 1
  %19 = sext i8 %18 to i64
  %20 = getelementptr inbounds i16, ptr %5, i64 %19
  %21 = load i16, ptr %20, align 2
  %22 = and i16 %21, 8192
  %.not21 = icmp eq i16 %22, 0
  %23 = add i64 %.130, -1
  br i1 %.not21, label %.critedge, label %.lr.ph31.split

.critedge:                                        ; preds = %.lr.ph31.split, %.preheader
  %.1.lcssa = phi i64 [ %.018.lcssa, %.preheader ], [ %.130, %.lr.ph31.split ]
  %24 = icmp eq i64 %.1.lcssa, 0
  br i1 %24, label %25, label %27

25:                                               ; preds = %.critedge
  %26 = tail call noalias ptr @_estrndup(ptr noundef nonnull @.str.5, i64 noundef 1) #25
  br label %.sink.split

27:                                               ; preds = %.critedge
  %28 = tail call noalias ptr @_estrndup(ptr noundef nonnull %.017.lcssa, i64 noundef %.1.lcssa) #25
  %29 = getelementptr inbounds i8, ptr %28, i64 %.1.lcssa
  store i8 0, ptr %29, align 1
  %.not22 = icmp eq ptr %2, null
  br i1 %.not22, label %30, label %.sink.split

.sink.split:                                      ; preds = %27, %25
  %.1.lcssa.sink = phi i64 [ 0, %25 ], [ %.1.lcssa, %27 ]
  %.0.ph = phi ptr [ %26, %25 ], [ %28, %27 ]
  store i64 %.1.lcssa.sink, ptr %2, align 8
  br label %30

30:                                               ; preds = %.sink.split, %27
  %.0 = phi ptr [ %28, %27 ], [ %.0.ph, %.sink.split ]
  ret ptr %.0
}